target datalayout = "e-m:e-p270:32:32-p271:32:32-p272:64:64-i64:64-i128:128-f80:128-n8:16:32:64-S128"
target triple = "x86_64-pc-linux-gnu"

; Function Attrs: nounwind uwtable
define i32 @ossl_quic_wire_decode_pkt_hdr_pn(ptr noundef %0, i64 noundef %1, i64 noundef %2, ptr noundef %3) #0 {
  %5 = alloca i32, align 4
  %6 = alloca ptr, align 8
  %7 = alloca i64, align 8
  %8 = alloca i64, align 8
  %9 = alloca ptr, align 8
  %10 = alloca i64, align 8
  %11 = alloca i64, align 8
  %12 = alloca i64, align 8
  %13 = alloca i64, align 8
  %14 = alloca i64, align 8
  %15 = alloca i64, align 8
  %16 = alloca i32, align 4
  store ptr %0, ptr %6, align 8, !tbaa !10
  store i64 %1, ptr %7, align 8, !tbaa !14
  store i64 %2, ptr %8, align 8, !tbaa !14
  store ptr %3, ptr %9, align 8, !tbaa !39
  call void @llvm.lifetime.start.p0(i64 8, ptr %10) #7
  call void @llvm.lifetime.start.p0(i64 8, ptr %11) #7
  call void @llvm.lifetime.start.p0(i64 8, ptr %12) #7
  call void @llvm.lifetime.start.p0(i64 8, ptr %13) #7
  call void @llvm.lifetime.start.p0(i64 8, ptr %14) #7
  call void @llvm.lifetime.start.p0(i64 8, ptr %15) #7
  %17 = load i64, ptr %7, align 8, !tbaa !14
  switch i64 %17, label %74 [
    i64 1, label %18
    i64 2, label %23
    i64 3, label %34
    i64 4, label %51
  ]

18:                                               ; preds = %4
  %19 = load ptr, ptr %6, align 8, !tbaa !10
  %20 = getelementptr inbounds i8, ptr %19, i64 0
  %21 = load i8, ptr %20, align 1, !tbaa !31
  %22 = zext i8 %21 to i64
  store i64 %22, ptr %11, align 8, !tbaa !14
  br label %75

23:                                               ; preds = %4
  %24 = load ptr, ptr %6, align 8, !tbaa !10
  %25 = getelementptr inbounds i8, ptr %24, i64 0
  %26 = load i8, ptr %25, align 1, !tbaa !31
  %27 = zext i8 %26 to i64
  %28 = shl i64 %27, 8
  %29 = load ptr, ptr %6, align 8, !tbaa !10
  %30 = getelementptr inbounds i8, ptr %29, i64 1
  %31 = load i8, ptr %30, align 1, !tbaa !31
  %32 = zext i8 %31 to i64
  %33 = or i64 %28, %32
  store i64 %33, ptr %11, align 8, !tbaa !14
  br label %75

34:                                               ; preds = %4
  %35 = load ptr, ptr %6, align 8, !tbaa !10
  %36 = getelementptr inbounds i8, ptr %35, i64 0
  %37 = load i8, ptr %36, align 1, !tbaa !31
  %38 = zext i8 %37 to i64
  %39 = shl i64 %38, 16
  %40 = load ptr, ptr %6, align 8, !tbaa !10
  %41 = getelementptr inbounds i8, ptr %40, i64 1
  %42 = load i8, ptr %41, align 1, !tbaa !31
  %43 = zext i8 %42 to i64
  %44 = shl i64 %43, 8
  %45 = or i64 %39, %44
  %46 = load ptr, ptr %6, align 8, !tbaa !10
  %47 = getelementptr inbounds i8, ptr %46, i64 2
  %48 = load i8, ptr %47, align 1, !tbaa !31
  %49 = zext i8 %48 to i64
  %50 = or i64 %45, %49
  store i64 %50, ptr %11, align 8, !tbaa !14
  br label %75

51:                                               ; preds = %4
  %52 = load ptr, ptr %6, align 8, !tbaa !10
  %53 = getelementptr inbounds i8, ptr %52, i64 0
  %54 = load i8, ptr %53, align 1, !tbaa !31
  %55 = zext i8 %54 to i64
  %56 = shl i64 %55, 24
  %57 = load ptr, ptr %6, align 8, !tbaa !10
  %58 = getelementptr inbounds i8, ptr %57, i64 1
  %59 = load i8, ptr %58, align 1, !tbaa !31
  %60 = zext i8 %59 to i64
  %61 = shl i64 %60, 16
  %62 = or i64 %56, %61
  %63 = load ptr, ptr %6, align 8, !tbaa !10
  %64 = getelementptr inbounds i8, ptr %63, i64 2
  %65 = load i8, ptr %64, align 1, !tbaa !31
  %66 = zext i8 %65 to i64
  %67 = shl i64 %66, 8
  %68 = or i64 %62, %67
  %69 = load ptr, ptr %6, align 8, !tbaa !10
  %70 = getelementptr inbounds i8, ptr %69, i64 3
  %71 = load i8, ptr %70, align 1, !tbaa !31
  %72 = zext i8 %71 to i64
  %73 = or i64 %68, %72
  store i64 %73, ptr %11, align 8, !tbaa !14
  br label %75

74:                                               ; preds = %4
  store i32 0, ptr %5, align 4
  store i32 1, ptr %16, align 4
  br label %126

75:                                               ; preds = %51, %34, %23, %18
  %76 = load i64, ptr %8, align 8, !tbaa !14
  %77 = add i64 %76, 1
  store i64 %77, ptr %10, align 8, !tbaa !14
  %78 = load i64, ptr %7, align 8, !tbaa !14
  %79 = mul i64 %78, 8
  %80 = shl i64 1, %79
  store i64 %80, ptr %13, align 8, !tbaa !14
  %81 = load i64, ptr %13, align 8, !tbaa !14
  %82 = sdiv i64 %81, 2
  store i64 %82, ptr %14, align 8, !tbaa !14
  %83 = load i64, ptr %13, align 8, !tbaa !14
  %84 = sub nsw i64 %83, 1
  store i64 %84, ptr %15, align 8, !tbaa !14
  %85 = load i64, ptr %10, align 8, !tbaa !14
  %86 = load i64, ptr %15, align 8, !tbaa !14
  %87 = xor i64 %86, -1
  %88 = and i64 %85, %87
  %89 = load i64, ptr %11, align 8, !tbaa !14
  %90 = or i64 %88, %89
  store i64 %90, ptr %12, align 8, !tbaa !14
  %91 = load i64, ptr %12, align 8, !tbaa !14
  %92 = load i64, ptr %10, align 8, !tbaa !14
  %93 = load i64, ptr %14, align 8, !tbaa !14
  %94 = sub nsw i64 %92, %93
  %95 = icmp sle i64 %91, %94
  br i1 %95, label %96, label %106

96:                                               ; preds = %75
  %97 = load i64, ptr %12, align 8, !tbaa !14
  %98 = load i64, ptr %13, align 8, !tbaa !14
  %99 = sub nsw i64 4611686018427387904, %98
  %100 = icmp slt i64 %97, %99
  br i1 %100, label %101, label %106

101:                                              ; preds = %96
  %102 = load i64, ptr %12, align 8, !tbaa !14
  %103 = load i64, ptr %13, align 8, !tbaa !14
  %104 = add nsw i64 %102, %103
  %105 = load ptr, ptr %9, align 8, !tbaa !39
  store i64 %104, ptr %105, align 8, !tbaa !14
  br label %125

106:                                              ; preds = %96, %75
  %107 = load i64, ptr %12, align 8, !tbaa !14
  %108 = load i64, ptr %10, align 8, !tbaa !14
  %109 = load i64, ptr %14, align 8, !tbaa !14
  %110 = add nsw i64 %108, %109
  %111 = icmp sgt i64 %107, %110
  br i1 %111, label %112, label %121

112:                                              ; preds = %106
  %113 = load i64, ptr %12, align 8, !tbaa !14
  %114 = load i64, ptr %13, align 8, !tbaa !14
  %115 = icmp sge i64 %113, %114
  br i1 %115, label %116, label %121

116:                                              ; preds = %112
  %117 = load i64, ptr %12, align 8, !tbaa !14
  %118 = load i64, ptr %13, align 8, !tbaa !14
  %119 = sub nsw i64 %117, %118
  %120 = load ptr, ptr %9, align 8, !tbaa !39
  store i64 %119, ptr %120, align 8, !tbaa !14
  br label %124

121:                                              ; preds = %112, %106
  %122 = load i64, ptr %12, align 8, !tbaa !14
  %123 = load ptr, ptr %9, align 8, !tbaa !39
  store i64 %122, ptr %123, align 8, !tbaa !14
  br label %124

124:                                              ; preds = %121, %116
  br label %125

125:                                              ; preds = %124, %101
  store i32 1, ptr %5, align 4
  store i32 1, ptr %16, align 4
  br label %126

126:                                              ; preds = %125, %74
  call void @llvm.lifetime.end.p0(i64 8, ptr %15) #7
  call void @llvm.lifetime.end.p0(i64 8, ptr %14) #7
  call void @llvm.lifetime.end.p0(i64 8, ptr %13) #7
  call void @llvm.lifetime.end.p0(i64 8, ptr %12) #7
  call void @llvm.lifetime.end.p0(i64 8, ptr %11) #7
  call void @llvm.lifetime.end.p0(i64 8, ptr %10) #7
  %127 = load i32, ptr %5, align 4
  ret i32 %127
}