; Function Attrs: mustprogress nofree norecurse nosync nounwind willreturn memory(argmem: readwrite) uwtable
define range(i32 0, 2) i32 @ossl_quic_wire_decode_pkt_hdr_pn(ptr noundef readonly captures(none) %0, i64 noundef %1, i64 noundef %2, ptr noundef writeonly captures(none) %3) local_unnamed_addr #6 {
  switch i64 %1, label %64 [
    i64 1, label %5
    i64 2, label %8
    i64 3, label %16
    i64 4, label %29
  ]

5:                                                ; preds = %4
  %6 = load i8, ptr %0, align 1, !tbaa !23
  %7 = zext i8 %6 to i64
  br label %47

8:                                                ; preds = %4
  %9 = load i8, ptr %0, align 1, !tbaa !23
  %10 = zext i8 %9 to i64
  %11 = shl nuw nsw i64 %10, 8
  %12 = getelementptr inbounds nuw i8, ptr %0, i64 1
  %13 = load i8, ptr %12, align 1, !tbaa !23
  %14 = zext i8 %13 to i64
  %15 = or disjoint i64 %11, %14
  br label %47

16:                                               ; preds = %4
  %17 = load i8, ptr %0, align 1, !tbaa !23
  %18 = zext i8 %17 to i64
  %19 = shl nuw nsw i64 %18, 16
  %20 = getelementptr inbounds nuw i8, ptr %0, i64 1
  %21 = load i8, ptr %20, align 1, !tbaa !23
  %22 = zext i8 %21 to i64
  %23 = shl nuw nsw i64 %22, 8
  %24 = or disjoint i64 %23, %19
  %25 = getelementptr inbounds nuw i8, ptr %0, i64 2
  %26 = load i8, ptr %25, align 1, !tbaa !23
  %27 = zext i8 %26 to i64
  %28 = or disjoint i64 %24, %27
  br label %47

29:                                               ; preds = %4
  %30 = load i8, ptr %0, align 1, !tbaa !23
  %31 = zext i8 %30 to i64
  %32 = shl nuw nsw i64 %31, 24
  %33 = getelementptr inbounds nuw i8, ptr %0, i64 1
  %34 = load i8, ptr %33, align 1, !tbaa !23
  %35 = zext i8 %34 to i64
  %36 = shl nuw nsw i64 %35, 16
  %37 = or disjoint i64 %36, %32
  %38 = getelementptr inbounds nuw i8, ptr %0, i64 2
  %39 = load i8, ptr %38, align 1, !tbaa !23
  %40 = zext i8 %39 to i64
  %41 = shl nuw nsw i64 %40, 8
  %42 = or disjoint i64 %37, %41
  %43 = getelementptr inbounds nuw i8, ptr %0, i64 3
  %44 = load i8, ptr %43, align 1, !tbaa !23
  %45 = zext i8 %44 to i64
  %46 = or disjoint i64 %42, %45
  br label %47

47:                                               ; preds = %29, %16, %8, %5
  %.036 = phi i64 [ %46, %29 ], [ %28, %16 ], [ %15, %8 ], [ %7, %5 ]
  %48 = add i64 %2, 1
  %49 = shl nuw nsw i64 %1, 3
  %50 = shl nuw nsw i64 1, %49
  %51 = lshr i64 %50, 1
  %52 = sub nsw i64 0, %50
  %53 = and i64 %48, %52
  %54 = or i64 %.036, %53
  %55 = sub nsw i64 %48, %51
  %.not = icmp sle i64 %54, %55
  %56 = sub nuw nsw i64 4611686018427387904, %50
  %57 = icmp slt i64 %54, %56
  %or.cond = select i1 %.not, i1 %57, i1 false
  br i1 %or.cond, label %58, label %60

58:                                               ; preds = %47
  %59 = add nsw i64 %54, %50
  br label %.sink.split

60:                                               ; preds = %47
  %61 = add nsw i64 %51, %48
  %62 = icmp sle i64 %54, %61
  %.not39 = icmp slt i64 %54, %50
  %or.cond41 = or i1 %62, %.not39
  %63 = select i1 %or.cond41, i64 0, i64 %50
  %spec.select = sub nsw i64 %54, %63
  br label %.sink.split

.sink.split:                                      ; preds = %60, %58
  %.sink = phi i64 [ %59, %58 ], [ %spec.select, %60 ]
  store i64 %.sink, ptr %3, align 8, !tbaa !30
  br label %64

64:                                               ; preds = %.sink.split, %4
  %.0 = phi i32 [ 0, %4 ], [ 1, %.sink.split ]
  ret i32 %.0
}